; Function Attrs: nounwind sspstrong uwtable
define internal void @ahci_start_dma(ptr noundef readonly captures(none) %0, ptr noundef initializes((800, 808)) %1, ptr noundef readonly captures(none) %2) #0 {
  %4 = alloca %struct.timeval, align 8
  %5 = getelementptr inbounds nuw i8, ptr %0, i64 2440
  %6 = load ptr, ptr %5, align 8
  %7 = getelementptr inbounds nuw i8, ptr %0, i64 2360
  %8 = load i32, ptr %7, align 8
  %9 = load i32, ptr @trace_events_enabled_count, align 4
  %.not.i.i = icmp eq i32 %9, 0
  br i1 %.not.i.i, label %trace_ahci_start_dma.exit, label %10, !prof !7

10:                                               ; preds = %3
  %11 = load i16, ptr @_TRACE_AHCI_START_DMA_DSTATE, align 2
  %.not3.i.i = icmp eq i16 %11, 0
  br i1 %.not3.i.i, label %trace_ahci_start_dma.exit, label %12

12:                                               ; preds = %10
  %13 = load i32, ptr @qemu_loglevel, align 4
  %14 = and i32 %13, 32768
  %.not4.i.i = icmp eq i32 %14, 0
  br i1 %.not4.i.i, label %trace_ahci_start_dma.exit, label %15

15:                                               ; preds = %12
  %16 = load i8, ptr @message_with_timestamp, align 1, !range !9, !noundef !10
  %17 = trunc nuw i8 %16 to i1
  br i1 %17, label %18, label %24

18:                                               ; preds = %15
  call void @llvm.lifetime.start.p0(i64 16, ptr nonnull %4) #14
  call void @llvm.memset.p0.i64(ptr noundef nonnull align 8 dereferenceable(16) %4, i8 0, i64 16, i1 false), !annotation !11
  %19 = call i32 @gettimeofday(ptr noundef nonnull %4, ptr noundef null) #14
  %20 = tail call i32 @qemu_get_thread_id() #14
  %21 = load i64, ptr %4, align 8
  %22 = getelementptr inbounds nuw i8, ptr %4, i64 8
  %23 = load i64, ptr %22, align 8
  tail call void (ptr, ...) @qemu_log(ptr noundef nonnull @.str.172, i32 noundef %20, i64 noundef %21, i64 noundef %23, ptr noundef %6, i32 noundef %8) #14
  call void @llvm.lifetime.end.p0(i64 16, ptr nonnull %4) #14
  br label %trace_ahci_start_dma.exit

24:                                               ; preds = %15
  tail call void (ptr, ...) @qemu_log(ptr noundef nonnull @.str.173, ptr noundef %6, i32 noundef %8) #14
  br label %trace_ahci_start_dma.exit

trace_ahci_start_dma.exit:                        ; preds = %3, %10, %12, %18, %24
  %25 = getelementptr inbounds nuw i8, ptr %1, i64 800
  store i64 0, ptr %25, align 8
  tail call void %2(ptr noundef %1, i32 noundef 0) #14
  ret void
}